; Function Attrs: mustprogress uwtable
define hidden void @_ZN6spacer10model_nodeC2EPS0_PNS_3pobE(ptr noundef nonnull align 8 dereferenceable(49) %this, ptr noundef %parent, ptr noundef %pob) unnamed_addr #3 align 2 personality ptr @__gxx_personality_v0 {
entry:
  store ptr %pob, ptr %this, align 8
  %tobool.not.i.i = icmp ne ptr %pob, null
  tail call void @llvm.assume(i1 %tobool.not.i.i)
  %0 = load i32, ptr %pob, align 8
  %inc.i.i.i = add i32 %0, 1
  store i32 %inc.i.i.i, ptr %pob, align 8
  %.pre = load ptr, ptr %this, align 8
  %m_parent = getelementptr inbounds i8, ptr %this, i64 8
  store ptr %parent, ptr %m_parent, align 8
  %m_children = getelementptr inbounds i8, ptr %this, i64 16
  %m_orig_level = getelementptr inbounds i8, ptr %this, i64 40
  %m_level.i = getelementptr inbounds i8, ptr %.pre, i64 72
  tail call void @llvm.memset.p0.i64(ptr noundef nonnull align 8 dereferenceable(24) %m_children, i8 0, i64 24, i1 false)
  %bf.load.i = load i64, ptr %m_level.i, align 8
  %1 = trunc i64 %bf.load.i to i32
  %bf.cast.i = and i32 %1, 65535
  store i32 %bf.cast.i, ptr %m_orig_level, align 8
  %m_depth = getelementptr inbounds i8, ptr %this, i64 44
  store i32 0, ptr %m_depth, align 4
  %m_closed = getelementptr inbounds i8, ptr %this, i64 48
  store i8 0, ptr %m_closed, align 8
  %tobool.not = icmp eq ptr %parent, null
  br i1 %tobool.not, label %if.end, label %if.then

if.then:                                          ; preds = %entry
  %m_children.i = getelementptr inbounds i8, ptr %parent, i64 16
  %2 = load ptr, ptr %m_children.i, align 8
  %cmp.i.i = icmp eq ptr %2, null
  br i1 %cmp.i.i, label %if.then.i.i2, label %lor.lhs.false.i.i

lor.lhs.false.i.i:                                ; preds = %if.then
  %arrayidx.i.i = getelementptr inbounds i8, ptr %2, i64 -4
  %3 = load i32, ptr %arrayidx.i.i, align 4
  %arrayidx4.i.i = getelementptr inbounds i8, ptr %2, i64 -8
  %4 = load i32, ptr %arrayidx4.i.i, align 4
  %cmp5.i.i = icmp eq i32 %3, %4
  br i1 %cmp5.i.i, label %if.then.i.i2, label %_ZN6vectorIPN6spacer10model_nodeELb0EjE9push_backERKS2_.exit.i

if.then.i.i2:                                     ; preds = %lor.lhs.false.i.i, %if.then
  invoke void @_ZN6vectorIPN6spacer10model_nodeELb0EjE13expand_vectorEv(ptr noundef nonnull align 8 dereferenceable(8) %m_children.i)
          to label %.noexc unwind label %lpad3

.noexc:                                           ; preds = %if.then.i.i2
  %.pre.i.i = load ptr, ptr %m_children.i, align 8
  %arrayidx8.phi.trans.insert.i.i = getelementptr inbounds i8, ptr %.pre.i.i, i64 -4
  %.pre1.i.i = load i32, ptr %arrayidx8.phi.trans.insert.i.i, align 4
  br label %_ZN6vectorIPN6spacer10model_nodeELb0EjE9push_backERKS2_.exit.i

_ZN6vectorIPN6spacer10model_nodeELb0EjE9push_backERKS2_.exit.i: ; preds = %.noexc, %lor.lhs.false.i.i
  %5 = phi i32 [ %.pre1.i.i, %.noexc ], [ %3, %lor.lhs.false.i.i ]
  %6 = phi ptr [ %.pre.i.i, %.noexc ], [ %2, %lor.lhs.false.i.i ]
  %idx.ext.i.i = zext i32 %5 to i64
  %add.ptr.i.i = getelementptr inbounds ptr, ptr %6, i64 %idx.ext.i.i
  store ptr %this, ptr %add.ptr.i.i, align 8
  %7 = load ptr, ptr %m_children.i, align 8
  %arrayidx10.i.i = getelementptr inbounds i8, ptr %7, i64 -4
  %8 = load i32, ptr %arrayidx10.i.i, align 4
  %inc.i.i = add i32 %8, 1
  store i32 %inc.i.i, ptr %arrayidx10.i.i, align 4
  %m_depth.i = getelementptr inbounds i8, ptr %parent, i64 44
  %9 = load i32, ptr %m_depth.i, align 4
  %add.i = add i32 %9, 1
  store i32 %add.i, ptr %m_depth, align 4
  %m_closed.i.i = getelementptr inbounds i8, ptr %parent, i64 48
  %10 = load i8, ptr %m_closed.i.i, align 8
  %11 = and i8 %10, 1
  %tobool.i.not.i = icmp eq i8 %11, 0
  br i1 %tobool.i.not.i, label %if.end, label %if.then.i

if.then.i:                                        ; preds = %_ZN6vectorIPN6spacer10model_nodeELb0EjE9push_backERKS2_.exit.i
  store i8 0, ptr %m_closed.i.i, align 8
  %p.0.in5.i.i = getelementptr inbounds i8, ptr %parent, i64 8
  %p.06.i.i = load ptr, ptr %p.0.in5.i.i, align 8
  %tobool.not7.i.i = icmp eq ptr %p.06.i.i, null
  br i1 %tobool.not7.i.i, label %if.end, label %land.rhs.i.i

land.rhs.i.i:                                     ; preds = %if.then.i, %while.body.i.i
  %p.08.i.i = phi ptr [ %p.0.i.i, %while.body.i.i ], [ %p.06.i.i, %if.then.i ]
  %m_closed.i.i.i = getelementptr inbounds i8, ptr %p.08.i.i, i64 48
  %12 = load i8, ptr %m_closed.i.i.i, align 8
  %13 = and i8 %12, 1
  %tobool.i.not.i.i = icmp eq i8 %13, 0
  br i1 %tobool.i.not.i.i, label %if.end, label %while.body.i.i

while.body.i.i:                                   ; preds = %land.rhs.i.i
  store i8 0, ptr %m_closed.i.i.i, align 8
  %p.0.in.i.i = getelementptr inbounds i8, ptr %p.08.i.i, i64 8
  %p.0.i.i = load ptr, ptr %p.0.in.i.i, align 8
  %tobool.not.i.i1 = icmp eq ptr %p.0.i.i, null
  br i1 %tobool.not.i.i1, label %if.end, label %land.rhs.i.i, !llvm.loop !4

lpad3:                                            ; preds = %if.then.i.i2
  %14 = landingpad { ptr, i32 }
          cleanup
  tail call void @_ZN10ptr_vectorIN6spacer10model_nodeEED2Ev(ptr noundef nonnull align 8 dereferenceable(8) %m_children) #18
  tail call void @_ZN3refIN6spacer3pobEED2Ev(ptr noundef nonnull align 8 dereferenceable(8) %this) #18
  resume { ptr, i32 } %14

if.end:                                           ; preds = %while.body.i.i, %land.rhs.i.i, %if.then.i, %_ZN6vectorIPN6spacer10model_nodeELb0EjE9push_backERKS2_.exit.i, %entry
  ret void
}